; Function Attrs: nofree norecurse nosync nounwind memory(argmem: read) uwtable
define range(i32 -32768, 32768) i32 @lv_arc_get_knob_offset(ptr noundef readonly captures(address_is_null) %0) local_unnamed_addr #4 {
  %.not = icmp eq ptr %0, null
  br i1 %.not, label %.preheader, label %2

.preheader:                                       ; preds = %1, %.preheader
  br label %.preheader

2:                                                ; preds = %1
  %3 = getelementptr inbounds nuw i8, ptr %0, i64 112
  %4 = load i16, ptr %3, align 8, !tbaa !60
  %5 = sext i16 %4 to i32
  ret i32 %5
}